target datalayout = "e-m:e-p270:32:32-p271:32:32-p272:64:64-i64:64-i128:128-f80:128-n8:16:32:64-S128"
target triple = "x86_64-pc-linux-gnu"

%struct.Abc_Frame_t_ = type { ptr, ptr, ptr, ptr, ptr, ptr, ptr, ptr, ptr, ptr, i32, i32, i32, i32, i32, ptr, float, float, i32, i32, ptr, ptr, ptr, double, double, ptr, ptr, ptr, ptr, ptr, ptr, ptr, ptr, ptr, ptr, ptr, ptr, float, ptr, i32, ptr, ptr, ptr, ptr, ptr, i32, i32, i32, i32, i32, i32, ptr, ptr, ptr, ptr, ptr, ptr, i32, i32, ptr, ptr, ptr, ptr, ptr, ptr, ptr, ptr, ptr, ptr, ptr, ptr, ptr, ptr, ptr, ptr, ptr, ptr, ptr, ptr, ptr, ptr, ptr, ptr, ptr, ptr, ptr, ptr, ptr, ptr }
%struct.Abc_Ntk_t_ = type { i32, i32, ptr, ptr, ptr, ptr, ptr, ptr, ptr, ptr, ptr, ptr, ptr, [11 x i32], i32, i32, i32, i32, ptr, i32, ptr, ptr, i32, i32, i32, double, i32, %struct.Vec_Int_t_, ptr, ptr, ptr, ptr, ptr, float, i32, ptr, ptr, ptr, ptr, ptr, ptr, ptr, ptr, ptr, ptr, ptr, ptr, ptr, ptr, ptr, ptr, ptr, ptr, ptr, ptr, ptr }
%struct.Vec_Int_t_ = type { i32, i32, ptr }

@.str.65 = private unnamed_addr constant [2 x i8] c"h\00", align 1
@.str.105 = private unnamed_addr constant [16 x i8] c"Empty network.\0A\00", align 1
@.str.108 = private unnamed_addr constant [10 x i8] c"savesteps\00", align 1
@.str.109 = private unnamed_addr constant [39 x i8] c"There is no previously saved network.\0A\00", align 1
@.str.110 = private unnamed_addr constant [26 x i8] c"Can only recall step %d.\0A\00", align 1
@.str.111 = private unnamed_addr constant [30 x i8] c"Can only recall steps %d-%d.\0A\00", align 1
@.str.112 = private unnamed_addr constant [24 x i8] c"Cannot recall step %d.\0A\00", align 1
@.str.113 = private unnamed_addr constant [24 x i8] c"usage: recall -h <num>\0A\00", align 1
@.str.114 = private unnamed_addr constant [69 x i8] c"         set the current network to be one of the previous networks\0A\00", align 1
@.str.115 = private unnamed_addr constant [50 x i8] c"<num> :  level to return to [default = previous]\0A\00", align 1
@.str.116 = private unnamed_addr constant [34 x i8] c"   -h :  print the command usage\0A\00", align 1

; Function Attrs: nounwind uwtable
define internal i32 @Abc_NtkStep(ptr noundef %0) #0 {
  %2 = alloca ptr, align 8
  store ptr %0, ptr %2, align 8
  %3 = load ptr, ptr %2, align 8
  %4 = getelementptr inbounds %struct.Abc_Ntk_t_, ptr %3, i32 0, i32 19
  %5 = load i32, ptr %4, align 8
  ret i32 %5
}

; Function Attrs: nounwind uwtable
define internal ptr @Abc_NtkBackup(ptr noundef %0) #0 {
  %2 = alloca ptr, align 8
  store ptr %0, ptr %2, align 8
  %3 = load ptr, ptr %2, align 8
  %4 = getelementptr inbounds %struct.Abc_Ntk_t_, ptr %3, i32 0, i32 18
  %5 = load ptr, ptr %4, align 8
  ret ptr %5
}

; Function Attrs: nounwind uwtable
define internal i32 @CmdCommandRecall(ptr noundef %0, i32 noundef %1, ptr noundef %2) #0 {
  %4 = alloca i32, align 4
  %5 = alloca ptr, align 8
  %6 = alloca i32, align 4
  %7 = alloca ptr, align 8
  %8 = alloca ptr, align 8
  %9 = alloca i32, align 4
  %10 = alloca i32, align 4
  %11 = alloca i32, align 4
  %12 = alloca i32, align 4
  %13 = alloca ptr, align 8
  %14 = alloca i32, align 4
  %15 = alloca i32, align 4
  store ptr %0, ptr %5, align 8
  store i32 %1, ptr %6, align 4
  store ptr %2, ptr %7, align 8
  call void (...) @Extra_UtilGetoptReset()
  br label %16

16:                                               ; preds = %3
  %17 = load i32, ptr %6, align 4
  %18 = load ptr, ptr %7, align 8
  %19 = call i32 @Extra_UtilGetopt(i32 noundef %17, ptr noundef %18, ptr noundef @.str.65)
  store i32 %19, ptr %12, align 4
  %20 = icmp ne i32 %19, -1
  br i1 %20, label %21, label %25

21:                                               ; preds = %16
  %22 = load i32, ptr %12, align 4
  switch i32 %22, label %24 [
    i32 104, label %23
  ]

23:                                               ; preds = %21
  br label %184

24:                                               ; preds = %21
  br label %184

25:                                               ; preds = %16
  %26 = load ptr, ptr %5, align 8
  %27 = getelementptr inbounds %struct.Abc_Frame_t_, ptr %26, i32 0, i32 6
  %28 = load ptr, ptr %27, align 8
  %29 = icmp eq ptr %28, null
  br i1 %29, label %30, label %35

30:                                               ; preds = %25
  %31 = load ptr, ptr %5, align 8
  %32 = getelementptr inbounds %struct.Abc_Frame_t_, ptr %31, i32 0, i32 20
  %33 = load ptr, ptr %32, align 8
  %34 = call i32 (ptr, ptr, ...) @fprintf(ptr noundef %33, ptr noundef @.str.105) #9
  store i32 0, ptr %4, align 4
  br label %201

35:                                               ; preds = %25
  %36 = load ptr, ptr %5, align 8
  %37 = call ptr @Cmd_FlagReadByName(ptr noundef %36, ptr noundef @.str.108)
  store ptr %37, ptr %13, align 8
  %38 = load ptr, ptr %13, align 8
  %39 = icmp eq ptr %38, null
  br i1 %39, label %40, label %41

40:                                               ; preds = %35
  store i32 1, ptr %11, align 4
  br label %44

41:                                               ; preds = %35
  %42 = load ptr, ptr %13, align 8
  %43 = call i32 @atoi(ptr noundef %42) #10
  store i32 %43, ptr %11, align 4
  br label %44

44:                                               ; preds = %41, %40
  %45 = load i32, ptr %6, align 4
  %46 = icmp eq i32 %45, 1
  br i1 %46, label %47, label %64

47:                                               ; preds = %44
  %48 = load ptr, ptr %5, align 8
  %49 = getelementptr inbounds %struct.Abc_Frame_t_, ptr %48, i32 0, i32 6
  %50 = load ptr, ptr %49, align 8
  %51 = call ptr @Abc_NtkBackup(ptr noundef %50)
  store ptr %51, ptr %8, align 8
  %52 = load ptr, ptr %8, align 8
  %53 = icmp eq ptr %52, null
  br i1 %53, label %54, label %59

54:                                               ; preds = %47
  %55 = load ptr, ptr %5, align 8
  %56 = getelementptr inbounds %struct.Abc_Frame_t_, ptr %55, i32 0, i32 20
  %57 = load ptr, ptr %56, align 8
  %58 = call i32 (ptr, ptr, ...) @fprintf(ptr noundef %57, ptr noundef @.str.109) #9
  br label %63

59:                                               ; preds = %47
  %60 = load ptr, ptr %5, align 8
  %61 = load ptr, ptr %8, align 8
  %62 = call ptr @Abc_NtkDup(ptr noundef %61)
  call void @Abc_FrameSetCurrentNetwork(ptr noundef %60, ptr noundef %62)
  br label %63

63:                                               ; preds = %59, %54
  store i32 0, ptr %4, align 4
  br label %201

64:                                               ; preds = %44
  %65 = load i32, ptr %6, align 4
  %66 = icmp eq i32 %65, 2
  br i1 %66, label %67, label %183

67:                                               ; preds = %64
  %68 = load ptr, ptr %7, align 8
  %69 = getelementptr inbounds ptr, ptr %68, i64 1
  %70 = load ptr, ptr %69, align 8
  %71 = call i32 @atoi(ptr noundef %70) #10
  store i32 %71, ptr %9, align 4
  %72 = load i32, ptr %9, align 4
  %73 = load ptr, ptr %5, align 8
  %74 = getelementptr inbounds %struct.Abc_Frame_t_, ptr %73, i32 0, i32 10
  %75 = load i32, ptr %74, align 8
  %76 = icmp sge i32 %72, %75
  br i1 %76, label %77, label %111

77:                                               ; preds = %67
  %78 = load ptr, ptr %5, align 8
  %79 = getelementptr inbounds %struct.Abc_Frame_t_, ptr %78, i32 0, i32 10
  %80 = load i32, ptr %79, align 8
  %81 = load i32, ptr %11, align 4
  %82 = sub nsw i32 %80, %81
  store i32 %82, ptr %14, align 4
  %83 = load i32, ptr %14, align 4
  %84 = icmp sle i32 %83, 0
  br i1 %84, label %85, label %86

85:                                               ; preds = %77
  store i32 1, ptr %14, align 4
  br label %86

86:                                               ; preds = %85, %77
  %87 = load ptr, ptr %5, align 8
  %88 = getelementptr inbounds %struct.Abc_Frame_t_, ptr %87, i32 0, i32 10
  %89 = load i32, ptr %88, align 8
  store i32 %89, ptr %15, align 4
  %90 = load i32, ptr %15, align 4
  %91 = icmp sle i32 %90, 0
  br i1 %91, label %92, label %93

92:                                               ; preds = %86
  store i32 1, ptr %15, align 4
  br label %93

93:                                               ; preds = %92, %86
  %94 = load i32, ptr %14, align 4
  %95 = load i32, ptr %15, align 4
  %96 = icmp eq i32 %94, %95
  br i1 %96, label %97, label %103

97:                                               ; preds = %93
  %98 = load ptr, ptr %5, align 8
  %99 = getelementptr inbounds %struct.Abc_Frame_t_, ptr %98, i32 0, i32 20
  %100 = load ptr, ptr %99, align 8
  %101 = load i32, ptr %15, align 4
  %102 = call i32 (ptr, ptr, ...) @fprintf(ptr noundef %100, ptr noundef @.str.110, i32 noundef %101) #9
  br label %110

103:                                              ; preds = %93
  %104 = load ptr, ptr %5, align 8
  %105 = getelementptr inbounds %struct.Abc_Frame_t_, ptr %104, i32 0, i32 20
  %106 = load ptr, ptr %105, align 8
  %107 = load i32, ptr %14, align 4
  %108 = load i32, ptr %15, align 4
  %109 = call i32 (ptr, ptr, ...) @fprintf(ptr noundef %106, ptr noundef @.str.111, i32 noundef %107, i32 noundef %108) #9
  br label %110

110:                                              ; preds = %103, %97
  br label %182

111:                                              ; preds = %67
  %112 = load i32, ptr %9, align 4
  %113 = icmp slt i32 %112, 0
  br i1 %113, label %114, label %120

114:                                              ; preds = %111
  %115 = load ptr, ptr %5, align 8
  %116 = getelementptr inbounds %struct.Abc_Frame_t_, ptr %115, i32 0, i32 20
  %117 = load ptr, ptr %116, align 8
  %118 = load i32, ptr %9, align 4
  %119 = call i32 (ptr, ptr, ...) @fprintf(ptr noundef %117, ptr noundef @.str.112, i32 noundef %118) #9
  br label %181

120:                                              ; preds = %111
  %121 = load i32, ptr %9, align 4
  %122 = icmp eq i32 %121, 0
  br i1 %122, label %123, label %125

123:                                              ; preds = %120
  %124 = load ptr, ptr %5, align 8
  call void @Abc_FrameDeleteAllNetworks(ptr noundef %124)
  br label %180

125:                                              ; preds = %120
  store i32 0, ptr %10, align 4
  %126 = load ptr, ptr %5, align 8
  %127 = getelementptr inbounds %struct.Abc_Frame_t_, ptr %126, i32 0, i32 6
  %128 = load ptr, ptr %127, align 8
  store ptr %128, ptr %8, align 8
  br label %129

129:                                              ; preds = %139, %125
  %130 = load ptr, ptr %8, align 8
  %131 = icmp ne ptr %130, null
  br i1 %131, label %132, label %142

132:                                              ; preds = %129
  %133 = load ptr, ptr %8, align 8
  %134 = call i32 @Abc_NtkStep(ptr noundef %133)
  store i32 %134, ptr %10, align 4
  %135 = load i32, ptr %9, align 4
  %136 = icmp eq i32 %134, %135
  br i1 %136, label %137, label %138

137:                                              ; preds = %132
  br label %142

138:                                              ; preds = %132
  br label %139

139:                                              ; preds = %138
  %140 = load ptr, ptr %8, align 8
  %141 = call ptr @Abc_NtkBackup(ptr noundef %140)
  store ptr %141, ptr %8, align 8
  br label %129, !llvm.loop !20

142:                                              ; preds = %137, %129
  %143 = load ptr, ptr %8, align 8
  %144 = icmp eq ptr %143, null
  br i1 %144, label %145, label %175

145:                                              ; preds = %142
  %146 = load i32, ptr %10, align 4
  store i32 %146, ptr %14, align 4
  %147 = load i32, ptr %14, align 4
  %148 = icmp sle i32 %147, 0
  br i1 %148, label %149, label %150

149:                                              ; preds = %145
  store i32 1, ptr %14, align 4
  br label %150

150:                                              ; preds = %149, %145
  %151 = load ptr, ptr %5, align 8
  %152 = getelementptr inbounds %struct.Abc_Frame_t_, ptr %151, i32 0, i32 10
  %153 = load i32, ptr %152, align 8
  store i32 %153, ptr %15, align 4
  %154 = load i32, ptr %15, align 4
  %155 = icmp sle i32 %154, 0
  br i1 %155, label %156, label %157

156:                                              ; preds = %150
  store i32 1, ptr %15, align 4
  br label %157

157:                                              ; preds = %156, %150
  %158 = load i32, ptr %14, align 4
  %159 = load i32, ptr %15, align 4
  %160 = icmp eq i32 %158, %159
  br i1 %160, label %161, label %167

161:                                              ; preds = %157
  %162 = load ptr, ptr %5, align 8
  %163 = getelementptr inbounds %struct.Abc_Frame_t_, ptr %162, i32 0, i32 20
  %164 = load ptr, ptr %163, align 8
  %165 = load i32, ptr %15, align 4
  %166 = call i32 (ptr, ptr, ...) @fprintf(ptr noundef %164, ptr noundef @.str.110, i32 noundef %165) #9
  br label %174

167:                                              ; preds = %157
  %168 = load ptr, ptr %5, align 8
  %169 = getelementptr inbounds %struct.Abc_Frame_t_, ptr %168, i32 0, i32 20
  %170 = load ptr, ptr %169, align 8
  %171 = load i32, ptr %14, align 4
  %172 = load i32, ptr %15, align 4
  %173 = call i32 (ptr, ptr, ...) @fprintf(ptr noundef %170, ptr noundef @.str.111, i32 noundef %171, i32 noundef %172) #9
  br label %174

174:                                              ; preds = %167, %161
  br label %179

175:                                              ; preds = %142
  %176 = load ptr, ptr %5, align 8
  %177 = load ptr, ptr %8, align 8
  %178 = call ptr @Abc_NtkDup(ptr noundef %177)
  call void @Abc_FrameSetCurrentNetwork(ptr noundef %176, ptr noundef %178)
  br label %179

179:                                              ; preds = %175, %174
  br label %180

180:                                              ; preds = %179, %123
  br label %181

181:                                              ; preds = %180, %114
  br label %182

182:                                              ; preds = %181, %110
  store i32 0, ptr %4, align 4
  br label %201

183:                                              ; preds = %64
  br label %184

184:                                              ; preds = %183, %24, %23
  %185 = load ptr, ptr %5, align 8
  %186 = getelementptr inbounds %struct.Abc_Frame_t_, ptr %185, i32 0, i32 21
  %187 = load ptr, ptr %186, align 8
  %188 = call i32 (ptr, ptr, ...) @fprintf(ptr noundef %187, ptr noundef @.str.113) #9
  %189 = load ptr, ptr %5, align 8
  %190 = getelementptr inbounds %struct.Abc_Frame_t_, ptr %189, i32 0, i32 21
  %191 = load ptr, ptr %190, align 8
  %192 = call i32 (ptr, ptr, ...) @fprintf(ptr noundef %191, ptr noundef @.str.114) #9
  %193 = load ptr, ptr %5, align 8
  %194 = getelementptr inbounds %struct.Abc_Frame_t_, ptr %193, i32 0, i32 21
  %195 = load ptr, ptr %194, align 8
  %196 = call i32 (ptr, ptr, ...) @fprintf(ptr noundef %195, ptr noundef @.str.115) #9
  %197 = load ptr, ptr %5, align 8
  %198 = getelementptr inbounds %struct.Abc_Frame_t_, ptr %197, i32 0, i32 21
  %199 = load ptr, ptr %198, align 8
  %200 = call i32 (ptr, ptr, ...) @fprintf(ptr noundef %199, ptr noundef @.str.116) #9
  store i32 1, ptr %4, align 4
  br label %201

201:                                              ; preds = %184, %182, %63, %30
  %202 = load i32, ptr %4, align 4
  ret i32 %202
}