; Function Attrs: nounwind uwtable
define internal range(i32 0, 2) i32 @CmdCommandRecall(ptr noundef %0, i32 noundef %1, ptr noundef %2) #0 {
  tail call void (...) @Extra_UtilGetoptReset() #17
  %4 = tail call i32 @Extra_UtilGetopt(i32 noundef %1, ptr noundef %2, ptr noundef nonnull @.str.65) #17
  %.not = icmp eq i32 %4, -1
  br i1 %.not, label %5, label %66

5:                                                ; preds = %3
  %6 = getelementptr inbounds nuw i8, ptr %0, i64 48
  %7 = load ptr, ptr %6, align 8
  %8 = icmp eq ptr %7, null
  br i1 %8, label %9, label %13

9:                                                ; preds = %5
  %10 = getelementptr inbounds nuw i8, ptr %0, i64 128
  %11 = load ptr, ptr %10, align 8
  %12 = tail call i64 @fwrite(ptr nonnull @.str.105, i64 15, i64 1, ptr %11)
  br label %76

13:                                               ; preds = %5
  %14 = tail call ptr @Cmd_FlagReadByName(ptr noundef nonnull %0, ptr noundef nonnull @.str.108) #17
  %15 = icmp eq ptr %14, null
  br i1 %15, label %18, label %16

16:                                               ; preds = %13
  %17 = tail call i32 @atoi(ptr noundef nonnull %14) #19
  br label %18

18:                                               ; preds = %13, %16
  %.061 = phi i32 [ %17, %16 ], [ 1, %13 ]
  switch i32 %1, label %66 [
    i32 1, label %19
    i32 2, label %29
  ]

19:                                               ; preds = %18
  %20 = load ptr, ptr %6, align 8
  %21 = getelementptr i8, ptr %20, i64 160
  %.val = load ptr, ptr %21, align 8
  %22 = icmp eq ptr %.val, null
  br i1 %22, label %23, label %27

23:                                               ; preds = %19
  %24 = getelementptr inbounds nuw i8, ptr %0, i64 128
  %25 = load ptr, ptr %24, align 8
  %26 = tail call i64 @fwrite(ptr nonnull @.str.109, i64 38, i64 1, ptr %25)
  br label %76

27:                                               ; preds = %19
  %28 = tail call ptr @Abc_NtkDup(ptr noundef nonnull %.val) #17
  tail call void @Abc_FrameSetCurrentNetwork(ptr noundef nonnull %0, ptr noundef %28) #17
  br label %76

29:                                               ; preds = %18
  %30 = getelementptr inbounds nuw i8, ptr %2, i64 8
  %31 = load ptr, ptr %30, align 8
  %32 = tail call i32 @atoi(ptr noundef %31) #19
  %33 = getelementptr inbounds nuw i8, ptr %0, i64 80
  %34 = load i32, ptr %33, align 8
  %.not70 = icmp slt i32 %32, %34
  br i1 %.not70, label %44, label %35

35:                                               ; preds = %29
  %36 = sub nsw i32 %34, %.061
  %spec.store.select = tail call i32 @llvm.smax.i32(i32 %36, i32 1)
  %spec.store.select2 = tail call i32 @llvm.smax.i32(i32 %34, i32 1)
  %37 = icmp eq i32 %spec.store.select, %spec.store.select2
  %38 = getelementptr inbounds nuw i8, ptr %0, i64 128
  %39 = load ptr, ptr %38, align 8
  br i1 %37, label %40, label %42

40:                                               ; preds = %35
  %41 = tail call i32 (ptr, ptr, ...) @fprintf(ptr noundef %39, ptr noundef nonnull @.str.110, i32 noundef %spec.store.select) #17
  br label %76

42:                                               ; preds = %35
  %43 = tail call i32 (ptr, ptr, ...) @fprintf(ptr noundef %39, ptr noundef nonnull @.str.111, i32 noundef %spec.store.select, i32 noundef %spec.store.select2) #17
  br label %76

44:                                               ; preds = %29
  %45 = icmp slt i32 %32, 0
  br i1 %45, label %46, label %50

46:                                               ; preds = %44
  %47 = getelementptr inbounds nuw i8, ptr %0, i64 128
  %48 = load ptr, ptr %47, align 8
  %49 = tail call i32 (ptr, ptr, ...) @fprintf(ptr noundef %48, ptr noundef nonnull @.str.112, i32 noundef %32) #17
  br label %76

50:                                               ; preds = %44
  %51 = icmp eq i32 %32, 0
  br i1 %51, label %52, label %.preheader

.preheader:                                       ; preds = %50
  %.06077 = load ptr, ptr %6, align 8
  %.not7178 = icmp eq ptr %.06077, null
  br i1 %.not7178, label %._crit_edge, label %.lr.ph

52:                                               ; preds = %50
  tail call void @Abc_FrameDeleteAllNetworks(ptr noundef nonnull %0) #17
  br label %76

.lr.ph:                                           ; preds = %.preheader, %55
  %.06079 = phi ptr [ %.060, %55 ], [ %.06077, %.preheader ]
  %53 = getelementptr i8, ptr %.06079, i64 168
  %.060.val72 = load i32, ptr %53, align 8
  %54 = icmp eq i32 %.060.val72, %32
  br i1 %54, label %64, label %55

55:                                               ; preds = %.lr.ph
  %56 = getelementptr i8, ptr %.06079, i64 160
  %.060 = load ptr, ptr %56, align 8
  %.not71 = icmp eq ptr %.060, null
  br i1 %.not71, label %._crit_edge, label %.lr.ph, !llvm.loop !19

._crit_edge:                                      ; preds = %55, %.preheader
  %.062.lcssa = phi i32 [ 0, %.preheader ], [ %.060.val72, %55 ]
  %spec.store.select1 = tail call i32 @llvm.smax.i32(i32 %.062.lcssa, i32 1)
  %57 = icmp eq i32 %spec.store.select1, %34
  %58 = getelementptr inbounds nuw i8, ptr %0, i64 128
  %59 = load ptr, ptr %58, align 8
  br i1 %57, label %60, label %62

60:                                               ; preds = %._crit_edge
  %61 = tail call i32 (ptr, ptr, ...) @fprintf(ptr noundef %59, ptr noundef nonnull @.str.110, i32 noundef %34) #17
  br label %76

62:                                               ; preds = %._crit_edge
  %63 = tail call i32 (ptr, ptr, ...) @fprintf(ptr noundef %59, ptr noundef nonnull @.str.111, i32 noundef %spec.store.select1, i32 noundef %34) #17
  br label %76

64:                                               ; preds = %.lr.ph
  %65 = tail call ptr @Abc_NtkDup(ptr noundef nonnull %.06079) #17
  tail call void @Abc_FrameSetCurrentNetwork(ptr noundef nonnull %0, ptr noundef %65) #17
  br label %76

66:                                               ; preds = %18, %3
  %67 = getelementptr inbounds nuw i8, ptr %0, i64 136
  %68 = load ptr, ptr %67, align 8
  %69 = tail call i64 @fwrite(ptr nonnull @.str.113, i64 23, i64 1, ptr %68)
  %70 = load ptr, ptr %67, align 8
  %71 = tail call i64 @fwrite(ptr nonnull @.str.114, i64 68, i64 1, ptr %70)
  %72 = load ptr, ptr %67, align 8
  %73 = tail call i64 @fwrite(ptr nonnull @.str.115, i64 49, i64 1, ptr %72)
  %74 = load ptr, ptr %67, align 8
  %75 = tail call i64 @fwrite(ptr nonnull @.str.116, i64 33, i64 1, ptr %74)
  br label %76

76:                                               ; preds = %42, %40, %52, %60, %62, %64, %46, %23, %27, %66, %9
  %.0 = phi i32 [ 1, %66 ], [ 0, %9 ], [ 0, %27 ], [ 0, %23 ], [ 0, %46 ], [ 0, %64 ], [ 0, %62 ], [ 0, %60 ], [ 0, %52 ], [ 0, %40 ], [ 0, %42 ]
  ret i32 %.0
}